; Function Attrs: mustprogress nofree norecurse nosync nounwind willreturn memory(read, inaccessiblemem: none) uwtable
define i32 @Gia_ObjFromMiniFanin1Copy(ptr noundef readnone captures(none) %0, ptr noundef readonly captures(none) %1, ptr noundef readonly captures(none) %2, i32 noundef %3) local_unnamed_addr #0 {
  %5 = getelementptr i8, ptr %2, i64 16
  %.val4 = load ptr, ptr %5, align 8, !tbaa !3
  %6 = shl nsw i32 %3, 1
  %7 = or disjoint i32 %6, 1
  %8 = sext i32 %7 to i64
  %9 = getelementptr inbounds i32, ptr %.val4, i64 %8
  %10 = load i32, ptr %9, align 4, !tbaa !10
  %11 = ashr i32 %10, 1
  %12 = getelementptr i8, ptr %1, i64 8
  %.val = load ptr, ptr %12, align 8, !tbaa !11
  %13 = sext i32 %11 to i64
  %14 = getelementptr inbounds i32, ptr %.val, i64 %13
  %15 = load i32, ptr %14, align 4, !tbaa !10
  %16 = and i32 %10, 1
  %17 = xor i32 %15, %16
  ret i32 %17
}